Certificate:
    Data:
        Version: 3 (0x2)
        Serial Number: 2 (0x2)
    Signature Algorithm: sha256WithRSAEncryption
        Issuer: C=UK, ST=Berkshire, L=Reading, O=Accanto, OU=ALM, CN=Accanto CA/name=EasyRSA/emailAddress=me@myhost.mydomain
        Validity
            Not Before: Apr 28 07:31:05 2018 GMT
            Not After : Apr 25 07:31:05 2028 GMT
        Subject: C=UK, ST=Berkshire, L=Reading, O=Accanto, OU=ALM, CN=client1/name=EasyRSA/emailAddress=me@myhost.mydomain
        Subject Public Key Info:
            Public Key Algorithm: rsaEncryption
                Public-Key: (2048 bit)
                Modulus:
                    00:d3:a3:b0:fd:10:ce:91:f9:ef:8e:6c:89:bf:54:
                    fd:03:3f:28:f8:f1:68:d2:c8:90:6b:4e:a6:3c:27:
                    00:29:45:df:fa:1f:da:54:66:7a:c5:f2:e6:a4:d9:
                    a0:5a:f7:01:33:36:9d:5d:e5:a3:66:74:26:f3:2f:
                    cf:f0:1c:ed:50:5c:75:8a:66:5f:99:3b:37:02:3e:
                    44:6f:d8:7b:a9:14:8c:35:68:b8:40:a6:2d:71:c8:
                    7d:be:33:47:1b:df:49:38:3a:83:d4:ef:d3:7e:f7:
                    fb:d6:57:3b:a8:ab:75:58:72:b6:fc:12:39:30:fd:
                    18:be:1d:c3:aa:c0:ff:10:2c:92:b3:05:24:34:fc:
                    59:de:64:86:ef:4c:26:cb:5a:f3:1c:36:86:ad:4a:
                    79:98:39:6a:e5:c1:69:12:33:a0:7e:83:20:c2:72:
                    ba:82:6b:1b:e8:8e:a9:32:84:2c:f7:92:da:40:5c:
                    d2:a9:a9:6a:f4:16:4b:e1:0d:fc:73:65:4e:e1:63:
                    ff:d1:13:0f:36:bf:73:6c:be:31:05:5b:8d:fd:12:
                    cd:f9:43:e2:a3:23:56:b4:30:fa:23:7e:cc:4d:65:
                    b2:c2:55:b5:ff:00:df:3e:c1:ef:65:48:60:13:1c:
                    99:05:df:64:01:ab:8f:00:25:16:f8:8d:ef:66:7a:
                    f6:71
                Exponent: 65537 (0x10001)
        X509v3 extensions:
            X509v3 Basic Constraints: 
                CA:FALSE
            Netscape Comment: 
                Easy-RSA Generated Certificate
            X509v3 Subject Key Identifier: 
                D1:EA:A3:D6:18:8E:64:E9:49:B2:4E:20:10:8E:6B:B7:74:FF:A9:E4
            X509v3 Authority Key Identifier: 
                keyid:05:6F:EF:78:E0:B6:43:75:37:F6:4C:F3:84:F2:18:59:84:8D:FB:8E
                DirName:/C=UK/ST=Berkshire/L=Reading/O=Accanto/OU=ALM/CN=Accanto CA/name=EasyRSA/emailAddress=me@myhost.mydomain
                serial:AB:DC:C2:57:CA:FB:9C:33

            X509v3 Extended Key Usage: 
                TLS Web Client Authentication
            X509v3 Key Usage: 
                Digital Signature
            X509v3 Subject Alternative Name: 
                DNS:client1
    Signature Algorithm: sha256WithRSAEncryption
         12:70:c8:d2:1f:d9:c8:33:03:ec:2c:f3:85:8a:ad:83:d7:d4:
         4c:b3:5b:e9:4b:ca:d9:06:5f:83:73:02:0e:d4:4c:d4:88:27:
         d7:ca:31:dc:fc:02:a1:c6:8d:42:35:ba:f7:12:bb:d8:d8:db:
         61:9f:9c:eb:84:68:9b:c4:9b:07:eb:e1:c3:41:7f:f4:76:7f:
         1b:c1:25:78:e2:2a:31:cc:d2:e7:37:1c:9e:d1:eb:36:f6:98:
         fb:5a:66:4f:aa:35:2d:84:4d:f6:a0:9a:60:8a:2d:8e:de:50:
         87:aa:a3:39:46:1e:14:81:df:12:a0:99:46:c1:fc:93:a4:c1:
         0f:15:05:31:d4:85:43:d9:44:7c:71:1f:a6:8d:da:1f:6b:f6:
         22:44:3a:f4:f5:75:dc:86:23:f8:2e:63:66:9f:f7:c0:d6:ba:
         2b:b1:23:e3:9c:8c:d2:88:6b:d7:0b:7b:1f:4b:ec:1f:3b:a6:
         66:af:67:e3:ce:e7:8b:05:30:fc:dd:1d:40:69:c4:da:bd:d0:
         a3:c6:f7:04:a2:02:bc:9e:23:f8:a7:8e:3a:cf:aa:2c:f8:da:
         be:81:8f:cf:99:8b:40:95:75:16:ec:28:f5:70:18:8b:55:e1:
         05:ac:22:ba:ad:af:f3:66:f8:e3:bc:14:0f:f8:24:f0:49:b5:
         52:29:a2:4c
-----BEGIN CERTIFICATE-----
MIIFHjCCBAagAwIBAgIBAjANBgkqhkiG9w0BAQsFADCBnTELMAkGA1UEBhMCVUsx
EjAQBgNVBAgTCUJlcmtzaGlyZTEQMA4GA1UEBxMHUmVhZGluZzEQMA4GA1UEChMH
QWNjYW50bzEMMAoGA1UECxMDQUxNMRMwEQYDVQQDEwpBY2NhbnRvIENBMRAwDgYD
VQQpEwdFYXN5UlNBMSEwHwYJKoZIhvcNAQkBFhJtZUBteWhvc3QubXlkb21haW4w
HhcNMTgwNDI4MDczMTA1WhcNMjgwNDI1MDczMTA1WjCBmjELMAkGA1UEBhMCVUsx
EjAQBgNVBAgTCUJlcmtzaGlyZTEQMA4GA1UEBxMHUmVhZGluZzEQMA4GA1UEChMH
QWNjYW50bzEMMAoGA1UECxMDQUxNMRAwDgYDVQQDEwdjbGllbnQxMRAwDgYDVQQp
EwdFYXN5UlNBMSEwHwYJKoZIhvcNAQkBFhJtZUBteWhvc3QubXlkb21haW4wggEi
MA0GCSqGSIb3DQEBAQUAA4IBDwAwggEKAoIBAQDTo7D9EM6R+e+ObIm/VP0DPyj4
8WjSyJBrTqY8JwApRd/6H9pUZnrF8uak2aBa9wEzNp1d5aNmdCbzL8/wHO1QXHWK
Zl+ZOzcCPkRv2HupFIw1aLhApi1xyH2+M0cb30k4OoPU79N+9/vWVzuoq3VYcrb8
Ejkw/Ri+HcOqwP8QLJKzBSQ0/FneZIbvTCbLWvMcNoatSnmYOWrlwWkSM6B+gyDC
crqCaxvojqkyhCz3ktpAXNKpqWr0FkvhDfxzZU7hY//REw82v3NsvjEFW439Es35
Q+KjI1a0MPojfsxNZbLCVbX/AN8+we9lSGATHJkF32QBq48AJRb4je9mevZxAgMB
AAGjggFoMIIBZDAJBgNVHRMEAjAAMC0GCWCGSAGG+EIBDQQgFh5FYXN5LVJTQSBH
ZW5lcmF0ZWQgQ2VydGlmaWNhdGUwHQYDVR0OBBYEFNHqo9YYjmTpSbJOIBCOa7d0
/6nkMIHSBgNVHSMEgcowgceAFAVv73jgtkN1N/ZM84TyGFmEjfuOoYGjpIGgMIGd
MQswCQYDVQQGEwJVSzESMBAGA1UECBMJQmVya3NoaXJlMRAwDgYDVQQHEwdSZWFk
aW5nMRAwDgYDVQQKEwdBY2NhbnRvMQwwCgYDVQQLEwNBTE0xEzARBgNVBAMTCkFj
Y2FudG8gQ0ExEDAOBgNVBCkTB0Vhc3lSU0ExITAfBgkqhkiG9w0BCQEWEm1lQG15
aG9zdC5teWRvbWFpboIJAKvcwlfK+5wzMBMGA1UdJQQMMAoGCCsGAQUFBwMCMAsG
A1UdDwQEAwIHgDASBgNVHREECzAJggdjbGllbnQxMA0GCSqGSIb3DQEBCwUAA4IB
AQAScMjSH9nIMwPsLPOFiq2D19RMs1vpS8rZBl+DcwIO1EzUiCfXyjHc/AKhxo1C
Nbr3ErvY2Nthn5zrhGibxJsH6+HDQX/0dn8bwSV44ioxzNLnNxye0es29pj7WmZP
qjUthE32oJpgii2O3lCHqqM5Rh4Ugd8SoJlGwfyTpMEPFQUx1IVD2UR8cR+mjdof
a/YiRDr09XXchiP4LmNmn/fA1rorsSPjnIzSiGvXC3sfS+wfO6Zmr2fjzueLBTD8
3R1AacTavdCjxvcEogK8niP4p446z6os+Nq+gY/PmYtAlXUW7Cj1cBiLVeEFrCK6
ra/zZvjjvBQP+CTwSbVSKaJM
-----END CERTIFICATE-----
