Certificate:
    Data:
        Version: 3 (0x2)
        Serial Number: 1 (0x1)
    Signature Algorithm: sha256WithRSAEncryption
        Issuer: C=UK, ST=Berkshire, L=Reading, O=Accanto, OU=ALM, CN=Accanto CA/name=EasyRSA/emailAddress=me@myhost.mydomain
        Validity
            Not Before: Apr 28 07:29:27 2018 GMT
            Not After : Apr 25 07:29:27 2028 GMT
        Subject: C=UK, ST=Berkshire, L=Reading, O=Accanto, OU=ALM, CN=server/name=EasyRSA/emailAddress=me@myhost.mydomain
        Subject Public Key Info:
            Public Key Algorithm: rsaEncryption
                Public-Key: (2048 bit)
                Modulus:
                    00:da:af:4e:1f:d8:87:33:32:49:48:d4:39:cb:20:
                    03:49:36:89:9b:9a:a5:fa:b8:13:31:43:73:99:d3:
                    5c:ee:71:eb:8b:ca:4b:82:59:64:8e:71:2c:51:23:
                    5b:ba:21:f3:cb:41:83:00:7e:df:42:98:65:b3:38:
                    87:3f:68:18:fb:58:9e:2f:23:e1:53:1a:b6:46:86:
                    84:cd:05:a6:d4:f0:02:56:97:8b:c5:53:cf:59:38:
                    50:b0:5f:7e:ed:d8:f4:c1:87:b9:1e:10:ac:c5:2b:
                    51:ae:f1:69:b3:fb:bb:ee:06:16:24:29:4f:bd:57:
                    7e:c1:10:90:9f:df:ef:44:24:aa:7d:43:41:4e:28:
                    c3:84:a0:5b:4d:8e:84:89:d9:3e:99:56:0d:ab:cd:
                    49:90:8f:81:22:42:6a:5c:7b:a3:0c:d5:77:a7:9a:
                    b0:20:87:19:83:9c:b5:f7:58:a7:58:db:60:4e:7e:
                    39:d8:b5:10:53:fd:ec:eb:c4:60:6a:7c:bb:22:ce:
                    53:34:7b:74:6d:7e:4e:75:3f:3a:93:e8:70:3b:b7:
                    1f:cf:36:b9:a1:b5:af:dc:bc:16:ca:0d:7b:3f:60:
                    25:3d:75:e2:ae:c4:57:ab:65:e3:6a:13:f0:29:35:
                    a8:fe:fc:7b:fd:1b:a5:95:52:4c:3f:42:54:ed:26:
                    db:b7
                Exponent: 65537 (0x10001)
        X509v3 extensions:
            X509v3 Basic Constraints: 
                CA:FALSE
            Netscape Cert Type: 
                SSL Server
            Netscape Comment: 
                Easy-RSA Generated Server Certificate
            X509v3 Subject Key Identifier: 
                11:9A:CE:04:14:78:D8:63:F8:6E:C0:FB:77:4A:24:9A:19:93:66:AD
            X509v3 Authority Key Identifier: 
                keyid:05:6F:EF:78:E0:B6:43:75:37:F6:4C:F3:84:F2:18:59:84:8D:FB:8E
                DirName:/C=UK/ST=Berkshire/L=Reading/O=Accanto/OU=ALM/CN=Accanto CA/name=EasyRSA/emailAddress=me@myhost.mydomain
                serial:AB:DC:C2:57:CA:FB:9C:33

            X509v3 Extended Key Usage: 
                TLS Web Server Authentication
            X509v3 Key Usage: 
                Digital Signature, Key Encipherment
            X509v3 Subject Alternative Name: 
                DNS:server
    Signature Algorithm: sha256WithRSAEncryption
         b5:26:9b:cc:4e:17:be:be:a2:25:ce:f7:e7:9d:bd:53:ed:fb:
         45:19:f3:61:dc:93:e8:7e:97:8c:49:9a:e7:c8:fc:f9:0c:18:
         f4:60:c0:12:89:e9:5b:fc:4e:72:6f:1d:82:fc:22:17:70:37:
         47:4c:2e:c6:6c:9e:f8:d7:da:aa:99:7c:44:be:f5:60:03:5f:
         5c:d5:88:84:07:05:3a:85:0d:83:83:d6:cc:43:e9:92:c8:01:
         2b:0a:02:95:6c:2d:1a:dd:fd:17:8a:fa:f2:3d:58:c1:c5:8c:
         a2:64:24:3c:08:60:50:3d:31:dc:73:5b:3b:a7:aa:d1:e8:7d:
         7b:e5:b3:f9:7d:63:b3:51:ab:cf:c8:43:f1:59:d2:b6:d3:b9:
         e9:87:83:56:7f:06:60:fa:05:b8:be:45:09:f0:b1:0a:ce:24:
         b5:90:c9:b0:5f:22:30:8c:fc:6f:88:75:94:c1:87:c0:ae:12:
         3b:36:37:7b:d1:b2:53:40:58:35:ca:4b:66:e3:b9:0f:1d:d1:
         88:dd:80:98:9c:8c:81:05:2d:2d:b9:c4:e8:47:ef:18:20:68:
         c7:b3:52:0a:4f:c9:b8:61:9a:6a:61:f1:80:a4:1c:c7:59:79:
         e6:6e:79:d6:87:ea:ba:79:37:71:72:6b:09:5d:fa:49:3d:4a:
         94:87:f5:f1
-----BEGIN CERTIFICATE-----
MIIFNjCCBB6gAwIBAgIBATANBgkqhkiG9w0BAQsFADCBnTELMAkGA1UEBhMCVUsx
EjAQBgNVBAgTCUJlcmtzaGlyZTEQMA4GA1UEBxMHUmVhZGluZzEQMA4GA1UEChMH
QWNjYW50bzEMMAoGA1UECxMDQUxNMRMwEQYDVQQDEwpBY2NhbnRvIENBMRAwDgYD
VQQpEwdFYXN5UlNBMSEwHwYJKoZIhvcNAQkBFhJtZUBteWhvc3QubXlkb21haW4w
HhcNMTgwNDI4MDcyOTI3WhcNMjgwNDI1MDcyOTI3WjCBmTELMAkGA1UEBhMCVUsx
EjAQBgNVBAgTCUJlcmtzaGlyZTEQMA4GA1UEBxMHUmVhZGluZzEQMA4GA1UEChMH
QWNjYW50bzEMMAoGA1UECxMDQUxNMQ8wDQYDVQQDEwZzZXJ2ZXIxEDAOBgNVBCkT
B0Vhc3lSU0ExITAfBgkqhkiG9w0BCQEWEm1lQG15aG9zdC5teWRvbWFpbjCCASIw
DQYJKoZIhvcNAQEBBQADggEPADCCAQoCggEBANqvTh/YhzMySUjUOcsgA0k2iZua
pfq4EzFDc5nTXO5x64vKS4JZZI5xLFEjW7oh88tBgwB+30KYZbM4hz9oGPtYni8j
4VMatkaGhM0FptTwAlaXi8VTz1k4ULBffu3Y9MGHuR4QrMUrUa7xabP7u+4GFiQp
T71XfsEQkJ/f70Qkqn1DQU4ow4SgW02OhInZPplWDavNSZCPgSJCalx7owzVd6ea
sCCHGYOctfdYp1jbYE5+Odi1EFP97OvEYGp8uyLOUzR7dG1+TnU/OpPocDu3H882
uaG1r9y8FsoNez9gJT114q7EV6tl42oT8Ck1qP78e/0bpZVSTD9CVO0m27cCAwEA
AaOCAYEwggF9MAkGA1UdEwQCMAAwEQYJYIZIAYb4QgEBBAQDAgZAMDQGCWCGSAGG
+EIBDQQnFiVFYXN5LVJTQSBHZW5lcmF0ZWQgU2VydmVyIENlcnRpZmljYXRlMB0G
A1UdDgQWBBQRms4EFHjYY/huwPt3SiSaGZNmrTCB0gYDVR0jBIHKMIHHgBQFb+94
4LZDdTf2TPOE8hhZhI37jqGBo6SBoDCBnTELMAkGA1UEBhMCVUsxEjAQBgNVBAgT
CUJlcmtzaGlyZTEQMA4GA1UEBxMHUmVhZGluZzEQMA4GA1UEChMHQWNjYW50bzEM
MAoGA1UECxMDQUxNMRMwEQYDVQQDEwpBY2NhbnRvIENBMRAwDgYDVQQpEwdFYXN5
UlNBMSEwHwYJKoZIhvcNAQkBFhJtZUBteWhvc3QubXlkb21haW6CCQCr3MJXyvuc
MzATBgNVHSUEDDAKBggrBgEFBQcDATALBgNVHQ8EBAMCBaAwEQYDVR0RBAowCIIG
c2VydmVyMA0GCSqGSIb3DQEBCwUAA4IBAQC1JpvMThe+vqIlzvfnnb1T7ftFGfNh
3JPofpeMSZrnyPz5DBj0YMASielb/E5ybx2C/CIXcDdHTC7GbJ7419qqmXxEvvVg
A19c1YiEBwU6hQ2Dg9bMQ+mSyAErCgKVbC0a3f0XivryPVjBxYyiZCQ8CGBQPTHc
c1s7p6rR6H175bP5fWOzUavPyEPxWdK207nph4NWfwZg+gW4vkUJ8LEKziS1kMmw
XyIwjPxviHWUwYfArhI7Njd70bJTQFg1yktm47kPHdGI3YCYnIyBBS0tucToR+8Y
IGjHs1IKT8m4YZpqYfGApBzHWXnmbnnWh+q6eTdxcmsJXfpJPUqUh/Xx
-----END CERTIFICATE-----
